; Function Attrs: mustprogress uwtable
define void @_ZN3zmq14plain_server_tC2EPNS_14session_base_tERKNSt7__cxx1112basic_stringIcSt11char_traitsIcESaIcEEERKNS_9options_tE(ptr noundef nonnull align 8 dereferenceable(1576) %this, ptr noundef %vtt, ptr noundef %session_, ptr noundef nonnull align 8 dereferenceable(32) %peer_address_, ptr noundef nonnull align 8 dereferenceable(1336) %options_) unnamed_addr #0 align 2 personality ptr @__gxx_personality_v0 {
entry:
  %0 = getelementptr inbounds i8, ptr %vtt, i64 8
  tail call void @_ZN3zmq29zap_client_common_handshake_tC2EPNS_14session_base_tERKNSt7__cxx1112basic_stringIcSt11char_traitsIcESaIcEEERKNS_9options_tENS0_7state_tE(ptr noundef nonnull align 8 dereferenceable(80) %this, ptr noundef nonnull %0, ptr noundef %session_, ptr noundef nonnull align 8 dereferenceable(32) %peer_address_, ptr noundef nonnull align 8 dereferenceable(1336) %options_, i32 noundef 1)
  %1 = load ptr, ptr %vtt, align 8
  store ptr %1, ptr %this, align 8
  %2 = getelementptr inbounds i8, ptr %vtt, i64 40
  %3 = load ptr, ptr %2, align 8
  %vbase.offset.ptr = getelementptr i8, ptr %1, i64 -24
  %vbase.offset = load i64, ptr %vbase.offset.ptr, align 8
  %add.ptr = getelementptr inbounds i8, ptr %this, i64 %vbase.offset
  store ptr %3, ptr %add.ptr, align 8
  %zap_enforce_domain = getelementptr inbounds i8, ptr %this, i64 1080
  %4 = load i8, ptr %zap_enforce_domain, align 8
  %5 = and i8 %4, 1
  %tobool.not = icmp eq i8 %5, 0
  br i1 %tobool.not, label %if.end11, label %do.body

do.body:                                          ; preds = %entry
  %add.ptr3 = getelementptr inbounds i8, ptr %this, i64 80
  %call = invoke noundef zeroext i1 @_ZNK3zmq16mechanism_base_t12zap_requiredEv(ptr noundef nonnull align 8 dereferenceable(1496) %add.ptr3)
          to label %invoke.cont unwind label %lpad

invoke.cont:                                      ; preds = %do.body
  br i1 %call, label %if.end11, label %if.then5

if.then5:                                         ; preds = %invoke.cont
  %6 = load ptr, ptr @stderr, align 8
  %call7 = tail call i32 (ptr, ptr, ...) @fprintf(ptr noundef %6, ptr noundef nonnull @.str, ptr noundef nonnull @.str.1, ptr noundef nonnull @.str.2, i32 noundef 27) #12
  %7 = load ptr, ptr @stderr, align 8
  %call9 = tail call i32 @fflush(ptr noundef %7)
  invoke void @_ZN3zmq9zmq_abortEPKc(ptr noundef nonnull @.str.1)
          to label %if.end11 unwind label %lpad

lpad:                                             ; preds = %if.then5, %do.body
  %8 = landingpad { ptr, i32 }
          cleanup
  tail call void @_ZN3zmq29zap_client_common_handshake_tD2Ev(ptr noundef nonnull align 8 dereferenceable(80) %this, ptr noundef nonnull %0) #13
  resume { ptr, i32 } %8

if.end11:                                         ; preds = %invoke.cont, %if.then5, %entry
  ret void
}